target datalayout = "e-m:e-p270:32:32-p271:32:32-p272:64:64-i64:64-i128:128-f80:128-n8:16:32:64-S128"
target triple = "x86_64-pc-linux-gnu"

%struct.UriMemoryManagerStruct = type { ptr, ptr, ptr, ptr, ptr, ptr }

; Function Attrs: nounwind uwtable
define i32 @uriCompleteMemoryManager(ptr noundef %0, ptr noundef %1) #0 {
  %3 = alloca i32, align 4
  %4 = alloca ptr, align 8
  %5 = alloca ptr, align 8
  store ptr %0, ptr %4, align 8, !tbaa !3
  store ptr %1, ptr %5, align 8, !tbaa !3
  %6 = load ptr, ptr %4, align 8, !tbaa !3
  %7 = icmp eq ptr %6, null
  br i1 %7, label %11, label %8

8:                                                ; preds = %2
  %9 = load ptr, ptr %5, align 8, !tbaa !3
  %10 = icmp eq ptr %9, null
  br i1 %10, label %11, label %12

11:                                               ; preds = %8, %2
  store i32 2, ptr %3, align 4
  br label %37

12:                                               ; preds = %8
  %13 = load ptr, ptr %5, align 8, !tbaa !3
  %14 = getelementptr inbounds nuw %struct.UriMemoryManagerStruct, ptr %13, i32 0, i32 0
  %15 = load ptr, ptr %14, align 8, !tbaa !8
  %16 = icmp eq ptr %15, null
  br i1 %16, label %22, label %17

17:                                               ; preds = %12
  %18 = load ptr, ptr %5, align 8, !tbaa !3
  %19 = getelementptr inbounds nuw %struct.UriMemoryManagerStruct, ptr %18, i32 0, i32 4
  %20 = load ptr, ptr %19, align 8, !tbaa !13
  %21 = icmp eq ptr %20, null
  br i1 %21, label %22, label %23

22:                                               ; preds = %17, %12
  store i32 10, ptr %3, align 4
  br label %37

23:                                               ; preds = %17
  %24 = load ptr, ptr %4, align 8, !tbaa !3
  %25 = getelementptr inbounds nuw %struct.UriMemoryManagerStruct, ptr %24, i32 0, i32 1
  store ptr @uriEmulateCalloc, ptr %25, align 8, !tbaa !10
  %26 = load ptr, ptr %4, align 8, !tbaa !3
  %27 = getelementptr inbounds nuw %struct.UriMemoryManagerStruct, ptr %26, i32 0, i32 3
  store ptr @uriEmulateReallocarray, ptr %27, align 8, !tbaa !12
  %28 = load ptr, ptr %4, align 8, !tbaa !3
  %29 = getelementptr inbounds nuw %struct.UriMemoryManagerStruct, ptr %28, i32 0, i32 0
  store ptr @uriDecorateMalloc, ptr %29, align 8, !tbaa !8
  %30 = load ptr, ptr %4, align 8, !tbaa !3
  %31 = getelementptr inbounds nuw %struct.UriMemoryManagerStruct, ptr %30, i32 0, i32 2
  store ptr @uriDecorateRealloc, ptr %31, align 8, !tbaa !11
  %32 = load ptr, ptr %4, align 8, !tbaa !3
  %33 = getelementptr inbounds nuw %struct.UriMemoryManagerStruct, ptr %32, i32 0, i32 4
  store ptr @uriDecorateFree, ptr %33, align 8, !tbaa !13
  %34 = load ptr, ptr %5, align 8, !tbaa !3
  %35 = load ptr, ptr %4, align 8, !tbaa !3
  %36 = getelementptr inbounds nuw %struct.UriMemoryManagerStruct, ptr %35, i32 0, i32 5
  store ptr %34, ptr %36, align 8, !tbaa !19
  store i32 0, ptr %3, align 4
  br label %37

37:                                               ; preds = %23, %22, %11
  %38 = load i32, ptr %3, align 4
  ret i32 %38
}