; Function Attrs: mustprogress nofree norecurse nosync nounwind willreturn memory(argmem: readwrite) uwtable
define range(i32 0, 11) i32 @uriCompleteMemoryManager(ptr noundef writeonly captures(address_is_null) %0, ptr noundef %1) local_unnamed_addr #4 {
  %3 = icmp eq ptr %0, null
  %4 = icmp eq ptr %1, null
  %or.cond = or i1 %3, %4
  br i1 %or.cond, label %18, label %5

5:                                                ; preds = %2
  %6 = load ptr, ptr %1, align 8, !tbaa !3
  %7 = icmp eq ptr %6, null
  br i1 %7, label %18, label %8

8:                                                ; preds = %5
  %9 = getelementptr inbounds nuw i8, ptr %1, i64 32
  %10 = load ptr, ptr %9, align 8, !tbaa !11
  %11 = icmp eq ptr %10, null
  br i1 %11, label %18, label %12

12:                                               ; preds = %8
  %13 = getelementptr inbounds nuw i8, ptr %0, i64 8
  store ptr @uriEmulateCalloc, ptr %13, align 8, !tbaa !8
  %14 = getelementptr inbounds nuw i8, ptr %0, i64 24
  store ptr @uriEmulateReallocarray, ptr %14, align 8, !tbaa !10
  store ptr @uriDecorateMalloc, ptr %0, align 8, !tbaa !3
  %15 = getelementptr inbounds nuw i8, ptr %0, i64 16
  store ptr @uriDecorateRealloc, ptr %15, align 8, !tbaa !9
  %16 = getelementptr inbounds nuw i8, ptr %0, i64 32
  store ptr @uriDecorateFree, ptr %16, align 8, !tbaa !11
  %17 = getelementptr inbounds nuw i8, ptr %0, i64 40
  store ptr %1, ptr %17, align 8, !tbaa !14
  br label %18

18:                                               ; preds = %5, %8, %2, %12
  %.0 = phi i32 [ 0, %12 ], [ 2, %2 ], [ 10, %8 ], [ 10, %5 ]
  ret i32 %.0
}